target datalayout = "e-m:e-p270:32:32-p271:32:32-p272:64:64-i64:64-i128:128-f80:128-n8:16:32:64-S128"
target triple = "x86_64-pc-linux-gnu"

%struct.SHA256_CTX = type { [64 x i8], i32, i64, [8 x i32] }

@.str.31 = private unnamed_addr constant [17 x i8] c"0123456789abcdef\00", align 1

; Function Attrs: nounwind uwtable
define dso_local ptr @ACLHashPassword(ptr noundef %0, i64 noundef %1) #0 {
  %3 = alloca ptr, align 8
  %4 = alloca i64, align 8
  %5 = alloca %struct.SHA256_CTX, align 8
  %6 = alloca [32 x i8], align 16
  %7 = alloca [64 x i8], align 16
  %8 = alloca ptr, align 8
  %9 = alloca i32, align 4
  store ptr %0, ptr %3, align 8, !tbaa !5
  store i64 %1, ptr %4, align 8, !tbaa !10
  call void @llvm.lifetime.start.p0(i64 112, ptr %5) #14
  call void @llvm.lifetime.start.p0(i64 32, ptr %6) #14
  call void @llvm.lifetime.start.p0(i64 64, ptr %7) #14
  call void @llvm.lifetime.start.p0(i64 8, ptr %8) #14
  store ptr @.str.31, ptr %8, align 8, !tbaa !5
  call void @sha256_init(ptr noundef %5)
  %10 = load ptr, ptr %3, align 8, !tbaa !5
  %11 = load i64, ptr %4, align 8, !tbaa !10
  call void @sha256_update(ptr noundef %5, ptr noundef %10, i64 noundef %11)
  %12 = getelementptr inbounds [32 x i8], ptr %6, i64 0, i64 0
  call void @sha256_final(ptr noundef %5, ptr noundef %12)
  call void @llvm.lifetime.start.p0(i64 4, ptr %9) #14
  store i32 0, ptr %9, align 4, !tbaa !17
  br label %13

13:                                               ; preds = %48, %2
  %14 = load i32, ptr %9, align 4, !tbaa !17
  %15 = icmp slt i32 %14, 32
  br i1 %15, label %17, label %16

16:                                               ; preds = %13
  call void @llvm.lifetime.end.p0(i64 4, ptr %9) #14
  br label %51

17:                                               ; preds = %13
  %18 = load ptr, ptr %8, align 8, !tbaa !5
  %19 = load i32, ptr %9, align 4, !tbaa !17
  %20 = sext i32 %19 to i64
  %21 = getelementptr inbounds [32 x i8], ptr %6, i64 0, i64 %20
  %22 = load i8, ptr %21, align 1, !tbaa !22
  %23 = zext i8 %22 to i32
  %24 = and i32 %23, 240
  %25 = ashr i32 %24, 4
  %26 = sext i32 %25 to i64
  %27 = getelementptr inbounds i8, ptr %18, i64 %26
  %28 = load i8, ptr %27, align 1, !tbaa !22
  %29 = load i32, ptr %9, align 4, !tbaa !17
  %30 = mul nsw i32 %29, 2
  %31 = sext i32 %30 to i64
  %32 = getelementptr inbounds [64 x i8], ptr %7, i64 0, i64 %31
  store i8 %28, ptr %32, align 1, !tbaa !22
  %33 = load ptr, ptr %8, align 8, !tbaa !5
  %34 = load i32, ptr %9, align 4, !tbaa !17
  %35 = sext i32 %34 to i64
  %36 = getelementptr inbounds [32 x i8], ptr %6, i64 0, i64 %35
  %37 = load i8, ptr %36, align 1, !tbaa !22
  %38 = zext i8 %37 to i32
  %39 = and i32 %38, 15
  %40 = sext i32 %39 to i64
  %41 = getelementptr inbounds i8, ptr %33, i64 %40
  %42 = load i8, ptr %41, align 1, !tbaa !22
  %43 = load i32, ptr %9, align 4, !tbaa !17
  %44 = mul nsw i32 %43, 2
  %45 = add nsw i32 %44, 1
  %46 = sext i32 %45 to i64
  %47 = getelementptr inbounds [64 x i8], ptr %7, i64 0, i64 %46
  store i8 %42, ptr %47, align 1, !tbaa !22
  br label %48

48:                                               ; preds = %17
  %49 = load i32, ptr %9, align 4, !tbaa !17
  %50 = add nsw i32 %49, 1
  store i32 %50, ptr %9, align 4, !tbaa !17
  br label %13, !llvm.loop !24

51:                                               ; preds = %16
  %52 = getelementptr inbounds [64 x i8], ptr %7, i64 0, i64 0
  %53 = call ptr @sdsnewlen(ptr noundef %52, i64 noundef 64)
  call void @llvm.lifetime.end.p0(i64 8, ptr %8) #14
  call void @llvm.lifetime.end.p0(i64 64, ptr %7) #14
  call void @llvm.lifetime.end.p0(i64 32, ptr %6) #14
  call void @llvm.lifetime.end.p0(i64 112, ptr %5) #14
  ret ptr %53
}