; Function Attrs: nounwind uwtable
define dso_local ptr @ACLHashPassword(ptr noundef %0, i64 noundef %1) local_unnamed_addr #0 {
  %3 = alloca %struct.SHA256_CTX, align 8
  %4 = alloca [32 x i8], align 16
  %5 = alloca [64 x i8], align 16
  call void @llvm.lifetime.start.p0(i64 112, ptr nonnull %3) #25
  call void @llvm.lifetime.start.p0(i64 32, ptr nonnull %4) #25
  call void @llvm.lifetime.start.p0(i64 64, ptr nonnull %5) #25
  call void @sha256_init(ptr noundef nonnull %3) #25
  call void @sha256_update(ptr noundef nonnull %3, ptr noundef %0, i64 noundef %1) #25
  call void @sha256_final(ptr noundef nonnull %3, ptr noundef nonnull %4) #25
  br label %8

6:                                                ; preds = %8
  %7 = call ptr @sdsnewlen(ptr noundef nonnull %5, i64 noundef 64) #25
  call void @llvm.lifetime.end.p0(i64 64, ptr nonnull %5) #25
  call void @llvm.lifetime.end.p0(i64 32, ptr nonnull %4) #25
  call void @llvm.lifetime.end.p0(i64 112, ptr nonnull %3) #25
  ret ptr %7

8:                                                ; preds = %2, %8
  %indvars.iv = phi i64 [ 0, %2 ], [ %indvars.iv.next, %8 ]
  %9 = getelementptr inbounds nuw [32 x i8], ptr %4, i64 0, i64 %indvars.iv
  %10 = load i8, ptr %9, align 1, !tbaa !19
  %11 = lshr i8 %10, 4
  %12 = zext nneg i8 %11 to i64
  %13 = getelementptr inbounds nuw i8, ptr @.str.31, i64 %12
  %14 = load i8, ptr %13, align 1, !tbaa !19
  %15 = shl nuw nsw i64 %indvars.iv, 1
  %16 = getelementptr inbounds nuw [64 x i8], ptr %5, i64 0, i64 %15
  store i8 %14, ptr %16, align 2, !tbaa !19
  %17 = and i8 %10, 15
  %18 = zext nneg i8 %17 to i64
  %19 = getelementptr inbounds nuw i8, ptr @.str.31, i64 %18
  %20 = load i8, ptr %19, align 1, !tbaa !19
  %21 = or disjoint i64 %15, 1
  %22 = getelementptr inbounds nuw [64 x i8], ptr %5, i64 0, i64 %21
  store i8 %20, ptr %22, align 1, !tbaa !19
  %indvars.iv.next = add nuw nsw i64 %indvars.iv, 1
  %exitcond.not = icmp eq i64 %indvars.iv.next, 32
  br i1 %exitcond.not, label %6, label %8, !llvm.loop !21
}